target datalayout = "e-m:e-p270:32:32-p271:32:32-p272:64:64-i64:64-i128:128-f80:128-n8:16:32:64-S128"
target triple = "x86_64-pc-linux-gnu"

%struct.TupleTableSlotOps = type { i64, ptr, ptr, ptr, ptr, ptr, ptr, ptr, ptr, ptr, ptr, ptr, ptr }
%struct.ExprEvalStep = type { i64, ptr, ptr, %union.anon }
%union.anon = type { %struct.anon.23 }
%struct.anon.23 = type { ptr, ptr, i32, i32, ptr, ptr }
%struct.ExprState = type { i32, i8, i8, i64, ptr, ptr, ptr, ptr, ptr, i32, i32, ptr, ptr, ptr, ptr, ptr, ptr, ptr }
%struct.PlanState = type { i32, ptr, ptr, ptr, ptr, ptr, ptr, ptr, ptr, ptr, ptr, ptr, ptr, ptr, ptr, ptr, ptr, ptr, i8, ptr, ptr, ptr, ptr, ptr, i8, i8, i8, i8, i8, i8, i8, i8 }
%struct.anon = type { i32, i8, ptr, ptr }

@TTSOpsVirtual = external constant %struct.TupleTableSlotOps, align 8

; Function Attrs: nounwind uwtable
define internal zeroext i1 @ExecComputeSlotInfo(ptr noundef %0, ptr noundef %1) #0 {
  %3 = alloca i1, align 1
  %4 = alloca ptr, align 8
  %5 = alloca ptr, align 8
  %6 = alloca ptr, align 8
  %7 = alloca ptr, align 8
  %8 = alloca ptr, align 8
  %9 = alloca i8, align 1
  %10 = alloca i32, align 4
  %11 = alloca ptr, align 8
  %12 = alloca ptr, align 8
  %13 = alloca i32, align 4
  store ptr %0, ptr %4, align 8
  store ptr %1, ptr %5, align 8
  call void @llvm.lifetime.start.p0(i64 8, ptr %6) #8
  %14 = load ptr, ptr %4, align 8
  %15 = getelementptr inbounds nuw %struct.ExprState, ptr %14, i32 0, i32 11
  %16 = load ptr, ptr %15, align 8
  store ptr %16, ptr %6, align 8
  call void @llvm.lifetime.start.p0(i64 8, ptr %7) #8
  store ptr null, ptr %7, align 8
  call void @llvm.lifetime.start.p0(i64 8, ptr %8) #8
  store ptr null, ptr %8, align 8
  call void @llvm.lifetime.start.p0(i64 1, ptr %9) #8
  store i8 0, ptr %9, align 1
  call void @llvm.lifetime.start.p0(i64 4, ptr %10) #8
  %17 = load ptr, ptr %5, align 8
  %18 = getelementptr inbounds nuw %struct.ExprEvalStep, ptr %17, i32 0, i32 0
  %19 = load i64, ptr %18, align 8
  %20 = trunc i64 %19 to i32
  store i32 %20, ptr %10, align 4
  %21 = load ptr, ptr %5, align 8
  %22 = getelementptr inbounds nuw %struct.ExprEvalStep, ptr %21, i32 0, i32 3
  %23 = getelementptr inbounds nuw %struct.anon, ptr %22, i32 0, i32 2
  %24 = load ptr, ptr %23, align 8
  %25 = icmp ne ptr %24, null
  br i1 %25, label %26, label %41

26:                                               ; preds = %2
  %27 = load ptr, ptr %5, align 8
  %28 = getelementptr inbounds nuw %struct.ExprEvalStep, ptr %27, i32 0, i32 3
  %29 = getelementptr inbounds nuw %struct.anon, ptr %28, i32 0, i32 2
  %30 = load ptr, ptr %29, align 8
  store ptr %30, ptr %7, align 8
  %31 = load ptr, ptr %5, align 8
  %32 = getelementptr inbounds nuw %struct.ExprEvalStep, ptr %31, i32 0, i32 3
  %33 = getelementptr inbounds nuw %struct.anon, ptr %32, i32 0, i32 3
  %34 = load ptr, ptr %33, align 8
  store ptr %34, ptr %8, align 8
  %35 = load ptr, ptr %5, align 8
  %36 = getelementptr inbounds nuw %struct.ExprEvalStep, ptr %35, i32 0, i32 3
  %37 = getelementptr inbounds nuw %struct.anon, ptr %36, i32 0, i32 3
  %38 = load ptr, ptr %37, align 8
  %39 = icmp ne ptr %38, null
  %40 = zext i1 %39 to i8
  store i8 %40, ptr %9, align 1
  br label %170

41:                                               ; preds = %2
  %42 = load ptr, ptr %6, align 8
  %43 = icmp ne ptr %42, null
  br i1 %43, label %45, label %44

44:                                               ; preds = %41
  store i8 0, ptr %9, align 1
  br label %169

45:                                               ; preds = %41
  %46 = load i32, ptr %10, align 4
  %47 = icmp eq i32 %46, 1
  br i1 %47, label %48, label %89

48:                                               ; preds = %45
  call void @llvm.lifetime.start.p0(i64 8, ptr %11) #8
  %49 = load ptr, ptr %6, align 8
  %50 = getelementptr inbounds nuw %struct.PlanState, ptr %49, i32 0, i32 10
  %51 = load ptr, ptr %50, align 8
  store ptr %51, ptr %11, align 8
  %52 = load ptr, ptr %6, align 8
  %53 = getelementptr inbounds nuw %struct.PlanState, ptr %52, i32 0, i32 30
  %54 = load i8, ptr %53, align 2, !range !4, !noundef !5
  %55 = trunc i8 %54 to i1
  br i1 %55, label %56, label %62

56:                                               ; preds = %48
  %57 = load ptr, ptr %6, align 8
  %58 = getelementptr inbounds nuw %struct.PlanState, ptr %57, i32 0, i32 26
  %59 = load i8, ptr %58, align 2, !range !4, !noundef !5
  %60 = trunc i8 %59 to i1
  br i1 %60, label %62, label %61

61:                                               ; preds = %56
  store i8 0, ptr %9, align 1
  br label %88

62:                                               ; preds = %56, %48
  %63 = load ptr, ptr %6, align 8
  %64 = getelementptr inbounds nuw %struct.PlanState, ptr %63, i32 0, i32 30
  %65 = load i8, ptr %64, align 2, !range !4, !noundef !5
  %66 = trunc i8 %65 to i1
  br i1 %66, label %67, label %78

67:                                               ; preds = %62
  %68 = load ptr, ptr %6, align 8
  %69 = getelementptr inbounds nuw %struct.PlanState, ptr %68, i32 0, i32 22
  %70 = load ptr, ptr %69, align 8
  %71 = icmp ne ptr %70, null
  br i1 %71, label %72, label %78

72:                                               ; preds = %67
  store i8 1, ptr %9, align 1
  %73 = load ptr, ptr %6, align 8
  %74 = getelementptr inbounds nuw %struct.PlanState, ptr %73, i32 0, i32 22
  %75 = load ptr, ptr %74, align 8
  store ptr %75, ptr %8, align 8
  %76 = load ptr, ptr %11, align 8
  %77 = call ptr @ExecGetResultType(ptr noundef %76)
  store ptr %77, ptr %7, align 8
  br label %87

78:                                               ; preds = %67, %62
  %79 = load ptr, ptr %11, align 8
  %80 = icmp ne ptr %79, null
  br i1 %80, label %81, label %86

81:                                               ; preds = %78
  %82 = load ptr, ptr %11, align 8
  %83 = call ptr @ExecGetResultSlotOps(ptr noundef %82, ptr noundef %9)
  store ptr %83, ptr %8, align 8
  %84 = load ptr, ptr %11, align 8
  %85 = call ptr @ExecGetResultType(ptr noundef %84)
  store ptr %85, ptr %7, align 8
  br label %86

86:                                               ; preds = %81, %78
  br label %87

87:                                               ; preds = %86, %72
  br label %88

88:                                               ; preds = %87, %61
  call void @llvm.lifetime.end.p0(i64 8, ptr %11) #8
  br label %168

89:                                               ; preds = %45
  %90 = load i32, ptr %10, align 4
  %91 = icmp eq i32 %90, 2
  br i1 %91, label %92, label %133

92:                                               ; preds = %89
  call void @llvm.lifetime.start.p0(i64 8, ptr %12) #8
  %93 = load ptr, ptr %6, align 8
  %94 = getelementptr inbounds nuw %struct.PlanState, ptr %93, i32 0, i32 9
  %95 = load ptr, ptr %94, align 8
  store ptr %95, ptr %12, align 8
  %96 = load ptr, ptr %6, align 8
  %97 = getelementptr inbounds nuw %struct.PlanState, ptr %96, i32 0, i32 29
  %98 = load i8, ptr %97, align 1, !range !4, !noundef !5
  %99 = trunc i8 %98 to i1
  br i1 %99, label %100, label %106

100:                                              ; preds = %92
  %101 = load ptr, ptr %6, align 8
  %102 = getelementptr inbounds nuw %struct.PlanState, ptr %101, i32 0, i32 25
  %103 = load i8, ptr %102, align 1, !range !4, !noundef !5
  %104 = trunc i8 %103 to i1
  br i1 %104, label %106, label %105

105:                                              ; preds = %100
  store i8 0, ptr %9, align 1
  br label %132

106:                                              ; preds = %100, %92
  %107 = load ptr, ptr %6, align 8
  %108 = getelementptr inbounds nuw %struct.PlanState, ptr %107, i32 0, i32 29
  %109 = load i8, ptr %108, align 1, !range !4, !noundef !5
  %110 = trunc i8 %109 to i1
  br i1 %110, label %111, label %122

111:                                              ; preds = %106
  %112 = load ptr, ptr %6, align 8
  %113 = getelementptr inbounds nuw %struct.PlanState, ptr %112, i32 0, i32 21
  %114 = load ptr, ptr %113, align 8
  %115 = icmp ne ptr %114, null
  br i1 %115, label %116, label %122

116:                                              ; preds = %111
  store i8 1, ptr %9, align 1
  %117 = load ptr, ptr %6, align 8
  %118 = getelementptr inbounds nuw %struct.PlanState, ptr %117, i32 0, i32 21
  %119 = load ptr, ptr %118, align 8
  store ptr %119, ptr %8, align 8
  %120 = load ptr, ptr %12, align 8
  %121 = call ptr @ExecGetResultType(ptr noundef %120)
  store ptr %121, ptr %7, align 8
  br label %131

122:                                              ; preds = %111, %106
  %123 = load ptr, ptr %12, align 8
  %124 = icmp ne ptr %123, null
  br i1 %124, label %125, label %130

125:                                              ; preds = %122
  %126 = load ptr, ptr %12, align 8
  %127 = call ptr @ExecGetResultSlotOps(ptr noundef %126, ptr noundef %9)
  store ptr %127, ptr %8, align 8
  %128 = load ptr, ptr %12, align 8
  %129 = call ptr @ExecGetResultType(ptr noundef %128)
  store ptr %129, ptr %7, align 8
  br label %130

130:                                              ; preds = %125, %122
  br label %131

131:                                              ; preds = %130, %116
  br label %132

132:                                              ; preds = %131, %105
  call void @llvm.lifetime.end.p0(i64 8, ptr %12) #8
  br label %167

133:                                              ; preds = %89
  %134 = load i32, ptr %10, align 4
  %135 = icmp eq i32 %134, 3
  br i1 %135, label %142, label %136

136:                                              ; preds = %133
  %137 = load i32, ptr %10, align 4
  %138 = icmp eq i32 %137, 4
  br i1 %138, label %142, label %139

139:                                              ; preds = %136
  %140 = load i32, ptr %10, align 4
  %141 = icmp eq i32 %140, 5
  br i1 %141, label %142, label %166

142:                                              ; preds = %139, %136, %133
  %143 = load ptr, ptr %6, align 8
  %144 = getelementptr inbounds nuw %struct.PlanState, ptr %143, i32 0, i32 19
  %145 = load ptr, ptr %144, align 8
  store ptr %145, ptr %7, align 8
  %146 = load ptr, ptr %6, align 8
  %147 = getelementptr inbounds nuw %struct.PlanState, ptr %146, i32 0, i32 20
  %148 = load ptr, ptr %147, align 8
  %149 = icmp ne ptr %148, null
  br i1 %149, label %150, label %154

150:                                              ; preds = %142
  %151 = load ptr, ptr %6, align 8
  %152 = getelementptr inbounds nuw %struct.PlanState, ptr %151, i32 0, i32 20
  %153 = load ptr, ptr %152, align 8
  store ptr %153, ptr %8, align 8
  br label %154

154:                                              ; preds = %150, %142
  %155 = load ptr, ptr %6, align 8
  %156 = getelementptr inbounds nuw %struct.PlanState, ptr %155, i32 0, i32 28
  %157 = load i8, ptr %156, align 4, !range !4, !noundef !5
  %158 = trunc i8 %157 to i1
  br i1 %158, label %159, label %165

159:                                              ; preds = %154
  %160 = load ptr, ptr %6, align 8
  %161 = getelementptr inbounds nuw %struct.PlanState, ptr %160, i32 0, i32 24
  %162 = load i8, ptr %161, align 8, !range !4, !noundef !5
  %163 = trunc i8 %162 to i1
  %164 = zext i1 %163 to i8
  store i8 %164, ptr %9, align 1
  br label %165

165:                                              ; preds = %159, %154
  br label %166

166:                                              ; preds = %165, %139
  br label %167

167:                                              ; preds = %166, %132
  br label %168

168:                                              ; preds = %167, %88
  br label %169

169:                                              ; preds = %168, %44
  br label %170

170:                                              ; preds = %169, %26
  %171 = load i8, ptr %9, align 1, !range !4, !noundef !5
  %172 = trunc i8 %171 to i1
  br i1 %172, label %173, label %191

173:                                              ; preds = %170
  %174 = load ptr, ptr %7, align 8
  %175 = icmp ne ptr %174, null
  br i1 %175, label %176, label %191

176:                                              ; preds = %173
  %177 = load ptr, ptr %8, align 8
  %178 = icmp ne ptr %177, null
  br i1 %178, label %179, label %191

179:                                              ; preds = %176
  %180 = load ptr, ptr %5, align 8
  %181 = getelementptr inbounds nuw %struct.ExprEvalStep, ptr %180, i32 0, i32 3
  %182 = getelementptr inbounds nuw %struct.anon, ptr %181, i32 0, i32 1
  store i8 1, ptr %182, align 4
  %183 = load ptr, ptr %8, align 8
  %184 = load ptr, ptr %5, align 8
  %185 = getelementptr inbounds nuw %struct.ExprEvalStep, ptr %184, i32 0, i32 3
  %186 = getelementptr inbounds nuw %struct.anon, ptr %185, i32 0, i32 3
  store ptr %183, ptr %186, align 8
  %187 = load ptr, ptr %7, align 8
  %188 = load ptr, ptr %5, align 8
  %189 = getelementptr inbounds nuw %struct.ExprEvalStep, ptr %188, i32 0, i32 3
  %190 = getelementptr inbounds nuw %struct.anon, ptr %189, i32 0, i32 2
  store ptr %187, ptr %190, align 8
  br label %201

191:                                              ; preds = %176, %173, %170
  %192 = load ptr, ptr %5, align 8
  %193 = getelementptr inbounds nuw %struct.ExprEvalStep, ptr %192, i32 0, i32 3
  %194 = getelementptr inbounds nuw %struct.anon, ptr %193, i32 0, i32 1
  store i8 0, ptr %194, align 4
  %195 = load ptr, ptr %5, align 8
  %196 = getelementptr inbounds nuw %struct.ExprEvalStep, ptr %195, i32 0, i32 3
  %197 = getelementptr inbounds nuw %struct.anon, ptr %196, i32 0, i32 3
  store ptr null, ptr %197, align 8
  %198 = load ptr, ptr %5, align 8
  %199 = getelementptr inbounds nuw %struct.ExprEvalStep, ptr %198, i32 0, i32 3
  %200 = getelementptr inbounds nuw %struct.anon, ptr %199, i32 0, i32 2
  store ptr null, ptr %200, align 8
  br label %201

201:                                              ; preds = %191, %179
  %202 = load ptr, ptr %5, align 8
  %203 = getelementptr inbounds nuw %struct.ExprEvalStep, ptr %202, i32 0, i32 3
  %204 = getelementptr inbounds nuw %struct.anon, ptr %203, i32 0, i32 1
  %205 = load i8, ptr %204, align 4, !range !4, !noundef !5
  %206 = trunc i8 %205 to i1
  br i1 %206, label %207, label %214

207:                                              ; preds = %201
  %208 = load ptr, ptr %5, align 8
  %209 = getelementptr inbounds nuw %struct.ExprEvalStep, ptr %208, i32 0, i32 3
  %210 = getelementptr inbounds nuw %struct.anon, ptr %209, i32 0, i32 3
  %211 = load ptr, ptr %210, align 8
  %212 = icmp eq ptr %211, @TTSOpsVirtual
  br i1 %212, label %213, label %214

213:                                              ; preds = %207
  store i1 false, ptr %3, align 1
  store i32 1, ptr %13, align 4
  br label %215

214:                                              ; preds = %207, %201
  store i1 true, ptr %3, align 1
  store i32 1, ptr %13, align 4
  br label %215

215:                                              ; preds = %214, %213
  call void @llvm.lifetime.end.p0(i64 4, ptr %10) #8
  call void @llvm.lifetime.end.p0(i64 1, ptr %9) #8
  call void @llvm.lifetime.end.p0(i64 8, ptr %8) #8
  call void @llvm.lifetime.end.p0(i64 8, ptr %7) #8
  call void @llvm.lifetime.end.p0(i64 8, ptr %6) #8
  %216 = load i1, ptr %3, align 1
  ret i1 %216
}