; Function Attrs: nounwind uwtable
define internal fastcc noundef zeroext i1 @ExecComputeSlotInfo(ptr readonly captures(address_is_null) %.64.val, ptr noundef nonnull captures(none) initializes((28, 29)) %0) unnamed_addr #0 {
  %2 = alloca i8, align 1
  call void @llvm.lifetime.start.p0(i64 1, ptr nonnull %2) #10
  store i8 0, ptr %2, align 1
  %3 = load i64, ptr %0, align 8
  %4 = trunc i64 %3 to i32
  %5 = getelementptr inbounds nuw i8, ptr %0, i64 32
  %6 = load ptr, ptr %5, align 8
  %.not = icmp eq ptr %6, null
  br i1 %.not, label %12, label %7

7:                                                ; preds = %1
  %8 = getelementptr inbounds nuw i8, ptr %0, i64 40
  %9 = load ptr, ptr %8, align 8
  %10 = icmp ne ptr %9, null
  %11 = zext i1 %10 to i8
  store i8 %11, ptr %2, align 1
  br label %65

12:                                               ; preds = %1
  %.not66 = icmp eq ptr %.64.val, null
  br i1 %.not66, label %70, label %13

13:                                               ; preds = %12
  switch i32 %4, label %52 [
    i32 1, label %14
    i32 2, label %33
  ]

14:                                               ; preds = %13
  %15 = getelementptr inbounds nuw i8, ptr %.64.val, i64 80
  %16 = load ptr, ptr %15, align 8
  %17 = getelementptr inbounds nuw i8, ptr %.64.val, i64 198
  %18 = load i8, ptr %17, align 2, !range !4, !noundef !5
  %19 = trunc nuw i8 %18 to i1
  br i1 %19, label %20, label %29

20:                                               ; preds = %14
  %21 = getelementptr inbounds nuw i8, ptr %.64.val, i64 194
  %22 = load i8, ptr %21, align 2, !range !4, !noundef !5
  %23 = trunc nuw i8 %22 to i1
  br i1 %23, label %24, label %70

24:                                               ; preds = %20
  %25 = getelementptr inbounds nuw i8, ptr %.64.val, i64 176
  %26 = load ptr, ptr %25, align 8
  %.not70 = icmp eq ptr %26, null
  br i1 %.not70, label %29, label %27

27:                                               ; preds = %24
  store i8 1, ptr %2, align 1
  %28 = tail call ptr @ExecGetResultType(ptr noundef %16) #10
  br label %65

29:                                               ; preds = %14, %24
  %.not71 = icmp eq ptr %16, null
  br i1 %.not71, label %70, label %30

30:                                               ; preds = %29
  %31 = call ptr @ExecGetResultSlotOps(ptr noundef nonnull %16, ptr noundef nonnull %2) #10
  %32 = call ptr @ExecGetResultType(ptr noundef nonnull %16) #10
  br label %65

33:                                               ; preds = %13
  %34 = getelementptr inbounds nuw i8, ptr %.64.val, i64 72
  %35 = load ptr, ptr %34, align 8
  %36 = getelementptr inbounds nuw i8, ptr %.64.val, i64 197
  %37 = load i8, ptr %36, align 1, !range !4, !noundef !5
  %38 = trunc nuw i8 %37 to i1
  br i1 %38, label %39, label %48

39:                                               ; preds = %33
  %40 = getelementptr inbounds nuw i8, ptr %.64.val, i64 193
  %41 = load i8, ptr %40, align 1, !range !4, !noundef !5
  %42 = trunc nuw i8 %41 to i1
  br i1 %42, label %43, label %70

43:                                               ; preds = %39
  %44 = getelementptr inbounds nuw i8, ptr %.64.val, i64 168
  %45 = load ptr, ptr %44, align 8
  %.not68 = icmp eq ptr %45, null
  br i1 %.not68, label %48, label %46

46:                                               ; preds = %43
  store i8 1, ptr %2, align 1
  %47 = tail call ptr @ExecGetResultType(ptr noundef %35) #10
  br label %65

48:                                               ; preds = %33, %43
  %.not69 = icmp eq ptr %35, null
  br i1 %.not69, label %70, label %49

49:                                               ; preds = %48
  %50 = call ptr @ExecGetResultSlotOps(ptr noundef nonnull %35, ptr noundef nonnull %2) #10
  %51 = call ptr @ExecGetResultType(ptr noundef nonnull %35) #10
  br label %65

52:                                               ; preds = %13
  %53 = add i32 %4, -3
  %or.cond3 = icmp ult i32 %53, 3
  br i1 %or.cond3, label %54, label %70

54:                                               ; preds = %52
  %55 = getelementptr inbounds nuw i8, ptr %.64.val, i64 152
  %56 = load ptr, ptr %55, align 8
  %57 = getelementptr inbounds nuw i8, ptr %.64.val, i64 160
  %58 = load ptr, ptr %57, align 8
  %59 = getelementptr inbounds nuw i8, ptr %.64.val, i64 196
  %60 = load i8, ptr %59, align 4, !range !4, !noundef !5
  %61 = trunc nuw i8 %60 to i1
  br i1 %61, label %62, label %65

62:                                               ; preds = %54
  %63 = getelementptr inbounds nuw i8, ptr %.64.val, i64 192
  %64 = load i8, ptr %63, align 8, !range !4, !noundef !5
  store i8 %64, ptr %2, align 1
  br label %65

65:                                               ; preds = %49, %46, %30, %27, %54, %62, %7
  %.057 = phi ptr [ %9, %7 ], [ %58, %62 ], [ %58, %54 ], [ %26, %27 ], [ %31, %30 ], [ %45, %46 ], [ %50, %49 ]
  %.056 = phi ptr [ %6, %7 ], [ %56, %62 ], [ %56, %54 ], [ %28, %27 ], [ %32, %30 ], [ %47, %46 ], [ %51, %49 ]
  %66 = load i8, ptr %2, align 1, !range !4, !noundef !5
  %67 = trunc nuw i8 %66 to i1
  %68 = icmp ne ptr %.056, null
  %or.cond5 = select i1 %67, i1 %68, i1 false
  %69 = icmp ne ptr %.057, null
  %or.cond7 = select i1 %or.cond5, i1 %69, i1 false
  br i1 %or.cond7, label %72, label %70

70:                                               ; preds = %39, %20, %12, %65, %52, %29, %48
  %71 = getelementptr inbounds nuw i8, ptr %0, i64 28
  store i8 0, ptr %71, align 4
  call void @llvm.memset.p0.i64(ptr noundef nonnull align 8 dereferenceable(16) %5, i8 0, i64 16, i1 false)
  br label %76

72:                                               ; preds = %65
  %73 = getelementptr inbounds nuw i8, ptr %0, i64 28
  store i8 1, ptr %73, align 4
  %74 = getelementptr inbounds nuw i8, ptr %0, i64 40
  store ptr %.057, ptr %74, align 8
  %75 = icmp eq ptr %.057, @TTSOpsVirtual
  store ptr %.056, ptr %5, align 8
  br i1 %75, label %77, label %76

76:                                               ; preds = %70, %72
  br label %77

77:                                               ; preds = %72, %76
  %.0 = phi i1 [ true, %76 ], [ false, %72 ]
  call void @llvm.lifetime.end.p0(i64 1, ptr nonnull %2) #10
  ret i1 %.0
}